; ModuleID = 'source-C-CXX/15/649.c'
source_filename = "source-C-CXX/15/649.c"
target datalayout = "e-m:e-p270:32:32-p271:32:32-p272:64:64-i64:64-f80:128-n8:16:32:64-S128"
target triple = "x86_64-pc-linux-gnu"

@.str = private unnamed_addr constant [3 x i8] c"%d\00", align 1
@.str.2 = private unnamed_addr constant [5 x i8] c"%d%d\00", align 1
@.str.3 = private unnamed_addr constant [7 x i8] c"%d%d%d\00", align 1
@.str.4 = private unnamed_addr constant [9 x i8] c"%d%d%d%d\00", align 1

; Function Attrs: nofree nounwind sspstrong uwtable
define dso_local i32 @main() local_unnamed_addr #0 {
  %1 = alloca i32, align 4
  %2 = bitcast i32* %1 to i8*
  call void @llvm.lifetime.start.p0i8(i64 4, i8* nonnull %2) #4
  %3 = call i32 (i8*, ...) @__isoc99_scanf(i8* getelementptr inbounds ([3 x i8], [3 x i8]* @.str, i64 0, i64 0), i32* nonnull %1)
  %4 = load i32, i32* %1, align 4, !tbaa !5
  %5 = srem i32 %4, 1000
  %6 = sdiv i32 %4, 1000
  %7 = trunc i32 %5 to i16
  %8 = srem i16 %7, 100
  %9 = sdiv i16 %7, 100
  %10 = sext i16 %9 to i32
  %11 = trunc i16 %8 to i8
  %12 = srem i8 %11, 10
  %13 = sext i8 %12 to i32
  %14 = sdiv i8 %11, 10
  %15 = sext i8 %14 to i32
  %16 = add i32 %4, 999
  %17 = icmp ult i32 %16, 1999
  br i1 %17, label %18, label %34

18:                                               ; preds = %0
  %19 = add nsw i32 %5, 99
  %20 = icmp ult i32 %19, 199
  br i1 %20, label %21, label %32

21:                                               ; preds = %18
  %22 = add nsw i16 %8, 9
  %23 = icmp ult i16 %22, 19
  br i1 %23, label %24, label %30

24:                                               ; preds = %21
  %25 = icmp eq i8 %12, 0
  br i1 %25, label %26, label %28

26:                                               ; preds = %24
  %27 = call i32 @putchar(i32 48)
  br label %36

28:                                               ; preds = %24
  %29 = call i32 (i8*, ...) @printf(i8* nonnull dereferenceable(1) getelementptr inbounds ([3 x i8], [3 x i8]* @.str, i64 0, i64 0), i32 %13)
  br label %36

30:                                               ; preds = %21
  %31 = call i32 (i8*, ...) @printf(i8* nonnull dereferenceable(1) getelementptr inbounds ([5 x i8], [5 x i8]* @.str.2, i64 0, i64 0), i32 %13, i32 %15)
  br label %36

32:                                               ; preds = %18
  %33 = call i32 (i8*, ...) @printf(i8* nonnull dereferenceable(1) getelementptr inbounds ([7 x i8], [7 x i8]* @.str.3, i64 0, i64 0), i32 %13, i32 %15, i32 %10)
  br label %36

34:                                               ; preds = %0
  %35 = call i32 (i8*, ...) @printf(i8* nonnull dereferenceable(1) getelementptr inbounds ([9 x i8], [9 x i8]* @.str.4, i64 0, i64 0), i32 %13, i32 %15, i32 %10, i32 %6)
  br label %36

36:                                               ; preds = %32, %26, %28, %30, %34
  call void @llvm.lifetime.end.p0i8(i64 4, i8* nonnull %2) #4
  ret i32 0
}

; Function Attrs: argmemonly mustprogress nofree nosync nounwind willreturn
declare void @llvm.lifetime.start.p0i8(i64 immarg, i8* nocapture) #1

; Function Attrs: nofree nounwind
declare noundef i32 @__isoc99_scanf(i8* nocapture noundef readonly, ...) local_unnamed_addr #2

; Function Attrs: nofree nounwind
declare noundef i32 @printf(i8* nocapture noundef readonly, ...) local_unnamed_addr #2

; Function Attrs: argmemonly mustprogress nofree nosync nounwind willreturn
declare void @llvm.lifetime.end.p0i8(i64 immarg, i8* nocapture) #1

; Function Attrs: nofree nounwind
declare noundef i32 @putchar(i32 noundef) local_unnamed_addr #3


!llvm.module.flags = !{!0, !1, !2, !3}
!llvm.ident = !{!4}

!0 = !{i32 1, !"wchar_size", i32 4}
!1 = !{i32 7, !"PIC Level", i32 2}
!2 = !{i32 7, !"PIE Level", i32 2}
!3 = !{i32 7, !"uwtable", i32 1}
!4 = !{!"clang version 13.0.0"}
!5 = !{!6, !6, i64 0}
!6 = !{!"int", !7, i64 0}
!7 = !{!"omnipotent char", !8, i64 0}
!8 = !{!"Simple C/C++ TBAA"}
